; ModuleID = 'source-C-CXX/59/172.c'
source_filename = "source-C-CXX/59/172.c"
target datalayout = "e-m:e-p270:32:32-p271:32:32-p272:64:64-i64:64-f80:128-n8:16:32:64-S128"
target triple = "x86_64-pc-linux-gnu"

@.str = private unnamed_addr constant [3 x i8] c"%d\00", align 1
@.str.1 = private unnamed_addr constant [7 x i8] c"%d %d\0A\00", align 1
@.str.2 = private unnamed_addr constant [6 x i8] c"empty\00", align 1

; Function Attrs: nofree nounwind sspstrong uwtable
define dso_local void @main() local_unnamed_addr #0 {
  %1 = alloca i32, align 4
  %2 = bitcast i32* %1 to i8*
  call void @llvm.lifetime.start.p0i8(i64 4, i8* nonnull %2) #3
  %3 = call i32 (i8*, ...) @__isoc99_scanf(i8* getelementptr inbounds ([3 x i8], [3 x i8]* @.str, i64 0, i64 0), i32* nonnull %1)
  %4 = load i32, i32* %1, align 4, !tbaa !5
  %5 = icmp sgt i32 %4, 4
  br i1 %5, label %6, label %52

6:                                                ; preds = %0, %40
  %7 = phi i32 [ %41, %40 ], [ %4, %0 ]
  %8 = phi i32 [ %49, %40 ], [ 5, %0 ]
  %9 = phi i32 [ %48, %40 ], [ 1, %0 ]
  %10 = phi i32 [ %44, %40 ], [ 0, %0 ]
  %11 = phi i32 [ %42, %40 ], [ 0, %0 ]
  %12 = phi i32 [ %43, %40 ], [ 0, %0 ]
  %13 = phi i32 [ %45, %40 ], [ 3, %0 ]
  %14 = add i32 %12, %9
  br label %15

15:                                               ; preds = %6, %19
  %16 = phi i32 [ %20, %19 ], [ 2, %6 ]
  %17 = urem i32 %13, %16
  %18 = icmp eq i32 %17, 0
  br i1 %18, label %40, label %19

19:                                               ; preds = %15
  %20 = add nuw nsw i32 %16, 1
  %21 = icmp eq i32 %20, %13
  br i1 %21, label %22, label %15, !llvm.loop !9

22:                                               ; preds = %19
  %23 = icmp eq i32 %14, 0
  br i1 %23, label %40, label %24

24:                                               ; preds = %22
  %25 = add nuw nsw i32 %13, 2
  %26 = add i32 %11, %13
  br label %27

27:                                               ; preds = %24, %31
  %28 = phi i32 [ 2, %24 ], [ %32, %31 ]
  %29 = urem i32 %25, %28
  %30 = icmp eq i32 %29, 0
  br i1 %30, label %40, label %31

31:                                               ; preds = %27
  %32 = add nuw i32 %28, 1
  %33 = icmp eq i32 %32, %8
  br i1 %33, label %34, label %27, !llvm.loop !11

34:                                               ; preds = %31
  %35 = icmp eq i32 %26, 0
  br i1 %35, label %40, label %36

36:                                               ; preds = %34
  %37 = call i32 (i8*, ...) @printf(i8* nonnull dereferenceable(1) getelementptr inbounds ([7 x i8], [7 x i8]* @.str.1, i64 0, i64 0), i32 %13, i32 %25)
  %38 = add nsw i32 %10, 1
  %39 = load i32, i32* %1, align 4, !tbaa !5
  br label %40

40:                                               ; preds = %15, %27, %22, %34, %36
  %41 = phi i32 [ %39, %36 ], [ %7, %34 ], [ %7, %22 ], [ %7, %27 ], [ %7, %15 ]
  %42 = phi i32 [ %26, %36 ], [ 0, %34 ], [ %11, %22 ], [ 0, %27 ], [ %11, %15 ]
  %43 = phi i32 [ %14, %36 ], [ %14, %34 ], [ 0, %22 ], [ %14, %27 ], [ 0, %15 ]
  %44 = phi i32 [ %38, %36 ], [ %10, %34 ], [ %10, %22 ], [ %10, %27 ], [ %10, %15 ]
  %45 = add nuw nsw i32 %13, 1
  %46 = add nsw i32 %41, -1
  %47 = icmp slt i32 %45, %46
  %48 = add nuw nsw i32 %9, 1
  %49 = add nuw i32 %8, 1
  br i1 %47, label %6, label %50, !llvm.loop !12

50:                                               ; preds = %40
  %51 = icmp eq i32 %44, 0
  br i1 %51, label %52, label %54

52:                                               ; preds = %0, %50
  %53 = call i32 (i8*, ...) @printf(i8* nonnull dereferenceable(1) getelementptr inbounds ([6 x i8], [6 x i8]* @.str.2, i64 0, i64 0))
  br label %54

54:                                               ; preds = %52, %50
  call void @llvm.lifetime.end.p0i8(i64 4, i8* nonnull %2) #3
  ret void
}

; Function Attrs: argmemonly mustprogress nofree nosync nounwind willreturn
declare void @llvm.lifetime.start.p0i8(i64 immarg, i8* nocapture) #1

; Function Attrs: nofree nounwind
declare noundef i32 @__isoc99_scanf(i8* nocapture noundef readonly, ...) local_unnamed_addr #2

; Function Attrs: nofree nounwind
declare noundef i32 @printf(i8* nocapture noundef readonly, ...) local_unnamed_addr #2

; Function Attrs: argmemonly mustprogress nofree nosync nounwind willreturn
declare void @llvm.lifetime.end.p0i8(i64 immarg, i8* nocapture) #1


!llvm.module.flags = !{!0, !1, !2, !3}
!llvm.ident = !{!4}

!0 = !{i32 1, !"wchar_size", i32 4}
!1 = !{i32 7, !"PIC Level", i32 2}
!2 = !{i32 7, !"PIE Level", i32 2}
!3 = !{i32 7, !"uwtable", i32 1}
!4 = !{!"clang version 13.0.0"}
!5 = !{!6, !6, i64 0}
!6 = !{!"int", !7, i64 0}
!7 = !{!"omnipotent char", !8, i64 0}
!8 = !{!"Simple C/C++ TBAA"}
!9 = distinct !{!9, !10}
!10 = !{!"llvm.loop.mustprogress"}
!11 = distinct !{!11, !10}
!12 = distinct !{!12, !10}
